target datalayout = "e-m:e-p270:32:32-p271:32:32-p272:64:64-i64:64-i128:128-f80:128-n8:16:32:64-S128"
target triple = "x86_64-pc-linux-gnu"

%struct.XLogCtlData = type { %struct.XLogCtlInsert, %struct.XLogwrtRqst, i64, %struct.FullTransactionId, i64, i64, i64, %struct.pg_atomic_uint64, i64, i64, %struct.pg_atomic_uint64, %struct.pg_atomic_uint64, %struct.pg_atomic_uint64, i64, ptr, ptr, i32, i32, i32, i32, i8, i8, i64, i64, %struct.CheckPoint, i64, i8 }
%struct.XLogCtlInsert = type { i8, i64, i64, [128 x i8], i64, i8, i32, i64, ptr }
%struct.XLogwrtRqst = type { i64, i64 }
%struct.FullTransactionId = type { i64 }
%struct.pg_atomic_uint64 = type { i64 }
%struct.CheckPoint = type { i64, i32, i32, i8, i32, %struct.FullTransactionId, i32, i32, i32, i32, i32, i32, i32, i64, i32, i32, i32 }
%union.WALInsertLockPadded = type { %struct.WALInsertLock, [96 x i8] }
%struct.WALInsertLock = type { %struct.LWLock, %struct.pg_atomic_uint64, i64 }
%struct.LWLock = type { i16, %struct.pg_atomic_uint32, %struct.proclist_head }
%struct.pg_atomic_uint32 = type { i32 }
%struct.proclist_head = type { i32, i32 }

@wal_segment_size = dso_local global i32 16777216, align 4
@XLogCtl = internal global ptr null, align 8
@.str.14 = private unnamed_addr constant [7 x i8] c"xlog.c\00", align 1
@holdingAllLocks = internal global i8 0, align 1
@MyLockNo = internal global i32 0, align 4
@WALInsertLocks = internal global ptr null, align 8
@GetXLogBuffer.cachedPage = internal global i64 0, align 8
@GetXLogBuffer.cachedPos = internal global ptr null, align 8
@.str.103 = private unnamed_addr constant [36 x i8] c"could not find WAL buffer for %X/%X\00", align 1
@__func__.GetXLogBuffer = private unnamed_addr constant [14 x i8] c"GetXLogBuffer\00", align 1

; Function Attrs: inlinehint nounwind uwtable
define internal i64 @pg_atomic_read_u64_impl(ptr noundef %0) #6 {
  %2 = alloca ptr, align 8
  store ptr %0, ptr %2, align 8
  %3 = load ptr, ptr %2, align 8
  %4 = getelementptr inbounds nuw %struct.pg_atomic_uint64, ptr %3, i32 0, i32 0
  %5 = load volatile i64, ptr %4, align 8
  ret i64 %5
}

; Function Attrs: nounwind uwtable
define internal void @WALInsertLockUpdateInsertingAt(i64 noundef %0) #0 {
  %2 = alloca i64, align 8
  store i64 %0, ptr %2, align 8
  %3 = load i8, ptr @holdingAllLocks, align 1, !range !4, !noundef !5
  %4 = trunc i8 %3 to i1
  br i1 %4, label %5, label %13

5:                                                ; preds = %1
  %6 = load ptr, ptr @WALInsertLocks, align 8
  %7 = getelementptr inbounds %union.WALInsertLockPadded, ptr %6, i64 7
  %8 = getelementptr inbounds nuw %struct.WALInsertLock, ptr %7, i32 0, i32 0
  %9 = load ptr, ptr @WALInsertLocks, align 8
  %10 = getelementptr inbounds %union.WALInsertLockPadded, ptr %9, i64 7
  %11 = getelementptr inbounds nuw %struct.WALInsertLock, ptr %10, i32 0, i32 1
  %12 = load i64, ptr %2, align 8
  call void @LWLockUpdateVar(ptr noundef %8, ptr noundef %11, i64 noundef %12)
  br label %25

13:                                               ; preds = %1
  %14 = load ptr, ptr @WALInsertLocks, align 8
  %15 = load i32, ptr @MyLockNo, align 4
  %16 = sext i32 %15 to i64
  %17 = getelementptr inbounds %union.WALInsertLockPadded, ptr %14, i64 %16
  %18 = getelementptr inbounds nuw %struct.WALInsertLock, ptr %17, i32 0, i32 0
  %19 = load ptr, ptr @WALInsertLocks, align 8
  %20 = load i32, ptr @MyLockNo, align 4
  %21 = sext i32 %20 to i64
  %22 = getelementptr inbounds %union.WALInsertLockPadded, ptr %19, i64 %21
  %23 = getelementptr inbounds nuw %struct.WALInsertLock, ptr %22, i32 0, i32 1
  %24 = load i64, ptr %2, align 8
  call void @LWLockUpdateVar(ptr noundef %18, ptr noundef %23, i64 noundef %24)
  br label %25

25:                                               ; preds = %13, %5
  ret void
}

; Function Attrs: inlinehint nounwind uwtable
define internal i64 @pg_atomic_read_u64(ptr noundef %0) #6 {
  %2 = alloca ptr, align 8
  store ptr %0, ptr %2, align 8
  %3 = load ptr, ptr %2, align 8
  %4 = call i64 @pg_atomic_read_u64_impl(ptr noundef %3)
  ret i64 %4
}

; Function Attrs: nounwind uwtable
define internal ptr @GetXLogBuffer(i64 noundef %0, i32 noundef %1) #0 {
  %3 = alloca ptr, align 8
  %4 = alloca i64, align 8
  %5 = alloca i32, align 4
  %6 = alloca i32, align 4
  %7 = alloca i64, align 8
  %8 = alloca i64, align 8
  %9 = alloca i32, align 4
  %10 = alloca i64, align 8
  %11 = alloca i32, align 4
  store i64 %0, ptr %4, align 8
  store i32 %1, ptr %5, align 4
  call void @llvm.lifetime.start.p0(i64 4, ptr %6) #16
  call void @llvm.lifetime.start.p0(i64 8, ptr %7) #16
  call void @llvm.lifetime.start.p0(i64 8, ptr %8) #16
  %12 = load i64, ptr %4, align 8
  %13 = udiv i64 %12, 8192
  %14 = load i64, ptr @GetXLogBuffer.cachedPage, align 8
  %15 = icmp eq i64 %13, %14
  br i1 %15, label %16, label %21

16:                                               ; preds = %2
  %17 = load ptr, ptr @GetXLogBuffer.cachedPos, align 8
  %18 = load i64, ptr %4, align 8
  %19 = urem i64 %18, 8192
  %20 = getelementptr inbounds nuw i8, ptr %17, i64 %19
  store ptr %20, ptr %3, align 8
  store i32 1, ptr %9, align 4
  br label %127

21:                                               ; preds = %2
  %22 = load i64, ptr %4, align 8
  %23 = udiv i64 %22, 8192
  %24 = load ptr, ptr @XLogCtl, align 8
  %25 = getelementptr inbounds nuw %struct.XLogCtlData, ptr %24, i32 0, i32 16
  %26 = load i32, ptr %25, align 8
  %27 = add i32 %26, 1
  %28 = sext i32 %27 to i64
  %29 = urem i64 %23, %28
  %30 = trunc i64 %29 to i32
  store i32 %30, ptr %6, align 4
  %31 = load i64, ptr %4, align 8
  store i64 %31, ptr %8, align 8
  %32 = load i64, ptr %4, align 8
  %33 = urem i64 %32, 8192
  %34 = sub i64 8192, %33
  %35 = load i64, ptr %8, align 8
  %36 = add i64 %35, %34
  store i64 %36, ptr %8, align 8
  %37 = load ptr, ptr @XLogCtl, align 8
  %38 = getelementptr inbounds nuw %struct.XLogCtlData, ptr %37, i32 0, i32 15
  %39 = load ptr, ptr %38, align 8
  %40 = load i32, ptr %6, align 4
  %41 = sext i32 %40 to i64
  %42 = getelementptr inbounds %struct.pg_atomic_uint64, ptr %39, i64 %41
  %43 = call i64 @pg_atomic_read_u64(ptr noundef %42)
  store i64 %43, ptr %7, align 8
  %44 = load i64, ptr %8, align 8
  %45 = load i64, ptr %7, align 8
  %46 = icmp ne i64 %44, %45
  br i1 %46, label %47, label %112

47:                                               ; preds = %21
  call void @llvm.lifetime.start.p0(i64 8, ptr %10) #16
  %48 = load i64, ptr %4, align 8
  %49 = urem i64 %48, 8192
  %50 = icmp eq i64 %49, 24
  br i1 %50, label %51, label %61

51:                                               ; preds = %47
  %52 = load i64, ptr %4, align 8
  %53 = load i32, ptr @wal_segment_size, align 4
  %54 = sub i32 %53, 1
  %55 = sext i32 %54 to i64
  %56 = and i64 %52, %55
  %57 = icmp ugt i64 %56, 8192
  br i1 %57, label %58, label %61

58:                                               ; preds = %51
  %59 = load i64, ptr %4, align 8
  %60 = sub i64 %59, 24
  store i64 %60, ptr %10, align 8
  br label %78

61:                                               ; preds = %51, %47
  %62 = load i64, ptr %4, align 8
  %63 = urem i64 %62, 8192
  %64 = icmp eq i64 %63, 40
  br i1 %64, label %65, label %75

65:                                               ; preds = %61
  %66 = load i64, ptr %4, align 8
  %67 = load i32, ptr @wal_segment_size, align 4
  %68 = sub i32 %67, 1
  %69 = sext i32 %68 to i64
  %70 = and i64 %66, %69
  %71 = icmp ult i64 %70, 8192
  br i1 %71, label %72, label %75

72:                                               ; preds = %65
  %73 = load i64, ptr %4, align 8
  %74 = sub i64 %73, 40
  store i64 %74, ptr %10, align 8
  br label %77

75:                                               ; preds = %65, %61
  %76 = load i64, ptr %4, align 8
  store i64 %76, ptr %10, align 8
  br label %77

77:                                               ; preds = %75, %72
  br label %78

78:                                               ; preds = %77, %58
  %79 = load i64, ptr %10, align 8
  call void @WALInsertLockUpdateInsertingAt(i64 noundef %79)
  %80 = load i64, ptr %4, align 8
  %81 = load i32, ptr %5, align 4
  call void @AdvanceXLInsertBuffer(i64 noundef %80, i32 noundef %81, i1 noundef zeroext false)
  %82 = load ptr, ptr @XLogCtl, align 8
  %83 = getelementptr inbounds nuw %struct.XLogCtlData, ptr %82, i32 0, i32 15
  %84 = load ptr, ptr %83, align 8
  %85 = load i32, ptr %6, align 4
  %86 = sext i32 %85 to i64
  %87 = getelementptr inbounds %struct.pg_atomic_uint64, ptr %84, i64 %86
  %88 = call i64 @pg_atomic_read_u64(ptr noundef %87)
  store i64 %88, ptr %7, align 8
  %89 = load i64, ptr %8, align 8
  %90 = load i64, ptr %7, align 8
  %91 = icmp ne i64 %89, %90
  br i1 %91, label %92, label %111

92:                                               ; preds = %78
  br label %93

93:                                               ; preds = %92
  br i1 true, label %94, label %96

94:                                               ; preds = %93
  %95 = call zeroext i1 @errstart_cold(i32 noundef 23, ptr noundef null) #17
  br i1 %95, label %98, label %108

96:                                               ; preds = %93
  %97 = call zeroext i1 @errstart(i32 noundef 23, ptr noundef null)
  br i1 %97, label %98, label %108

98:                                               ; preds = %96, %94
  br label %99

99:                                               ; preds = %98
  br label %100

100:                                              ; preds = %99
  br label %101

101:                                              ; preds = %100
  store i32 1, ptr %11, align 4
  %102 = load i64, ptr %4, align 8
  %103 = lshr i64 %102, 32
  %104 = trunc i64 %103 to i32
  %105 = load i64, ptr %4, align 8
  %106 = trunc i64 %105 to i32
  %107 = call i32 (ptr, ...) @errmsg_internal(ptr noundef @.str.103, i32 noundef %104, i32 noundef %106)
  call void @errfinish(ptr noundef @.str.14, i32 noundef 1709, ptr noundef @__func__.GetXLogBuffer)
  br label %108

108:                                              ; preds = %101, %96, %94
  unreachable

109:                                              ; No predecessors!
  br label %110

110:                                              ; preds = %109
  br label %111

111:                                              ; preds = %110, %78
  call void @llvm.lifetime.end.p0(i64 8, ptr %10) #16
  br label %113

112:                                              ; preds = %21
  call void asm sideeffect "lock; addl $$0,0(%rsp)", "~{memory},~{cc},~{dirflag},~{fpsr},~{flags}"() #16, !srcloc !99
  br label %113

113:                                              ; preds = %112, %111
  %114 = load i64, ptr %4, align 8
  %115 = udiv i64 %114, 8192
  store i64 %115, ptr @GetXLogBuffer.cachedPage, align 8
  %116 = load ptr, ptr @XLogCtl, align 8
  %117 = getelementptr inbounds nuw %struct.XLogCtlData, ptr %116, i32 0, i32 14
  %118 = load ptr, ptr %117, align 8
  %119 = load i32, ptr %6, align 4
  %120 = sext i32 %119 to i64
  %121 = mul i64 %120, 8192
  %122 = getelementptr inbounds nuw i8, ptr %118, i64 %121
  store ptr %122, ptr @GetXLogBuffer.cachedPos, align 8
  %123 = load ptr, ptr @GetXLogBuffer.cachedPos, align 8
  %124 = load i64, ptr %4, align 8
  %125 = urem i64 %124, 8192
  %126 = getelementptr inbounds nuw i8, ptr %123, i64 %125
  store ptr %126, ptr %3, align 8
  store i32 1, ptr %9, align 4
  br label %127

127:                                              ; preds = %113, %16
  call void @llvm.lifetime.end.p0(i64 8, ptr %8) #16
  call void @llvm.lifetime.end.p0(i64 8, ptr %7) #16
  call void @llvm.lifetime.end.p0(i64 4, ptr %6) #16
  %128 = load ptr, ptr %3, align 8
  ret ptr %128
}