; Function Attrs: nounwind uwtable
define internal fastcc ptr @GetXLogBuffer(i64 noundef %0, i32 noundef %1) unnamed_addr #0 {
  %3 = lshr i64 %0, 13
  %4 = load i64, ptr @GetXLogBuffer.cachedPage, align 8
  %5 = icmp eq i64 %3, %4
  br i1 %5, label %6, label %10

6:                                                ; preds = %2
  %7 = load ptr, ptr @GetXLogBuffer.cachedPos, align 8
  %8 = and i64 %0, 8191
  %9 = getelementptr inbounds nuw i8, ptr %7, i64 %8
  br label %68

10:                                               ; preds = %2
  %11 = load ptr, ptr @XLogCtl, align 8
  %12 = getelementptr inbounds nuw i8, ptr %11, i64 312
  %13 = load i32, ptr %12, align 8
  %14 = add i32 %13, 1
  %15 = sext i32 %14 to i64
  %16 = urem i64 %3, %15
  %17 = and i64 %0, 8191
  %reass.sub = and i64 %0, -8192
  %18 = add i64 %reass.sub, 8192
  %19 = getelementptr inbounds nuw i8, ptr %11, i64 304
  %20 = load ptr, ptr %19, align 8
  %sext = shl i64 %16, 32
  %21 = ashr exact i64 %sext, 32
  %22 = getelementptr inbounds %struct.pg_atomic_uint64, ptr %20, i64 %21
  %23 = load volatile i64, ptr %22, align 8
  %.not = icmp eq i64 %18, %23
  br i1 %.not, label %60, label %24

24:                                               ; preds = %10
  switch i64 %17, label %39 [
    i64 24, label %25
    i64 40, label %32
  ]

25:                                               ; preds = %24
  %26 = load i32, ptr @wal_segment_size, align 4
  %27 = add i32 %26, -1
  %28 = sext i32 %27 to i64
  %29 = and i64 %0, %28
  %30 = icmp ugt i64 %29, 8192
  %31 = add nsw i64 %0, -24
  %spec.select31 = select i1 %30, i64 %31, i64 %0
  br label %39

32:                                               ; preds = %24
  %33 = load i32, ptr @wal_segment_size, align 4
  %34 = add i32 %33, -1
  %35 = sext i32 %34 to i64
  %36 = and i64 %0, %35
  %37 = icmp ult i64 %36, 8192
  %38 = add nsw i64 %0, -40
  %spec.select = select i1 %37, i64 %38, i64 %0
  br label %39

39:                                               ; preds = %25, %32, %24
  %.027 = phi i64 [ %0, %24 ], [ %spec.select, %32 ], [ %spec.select31, %25 ]
  %.b2.i = load i1, ptr @holdingAllLocks, align 1
  %40 = load ptr, ptr @WALInsertLocks, align 8
  br i1 %.b2.i, label %41, label %44

41:                                               ; preds = %39
  %42 = getelementptr inbounds nuw i8, ptr %40, i64 896
  %43 = getelementptr inbounds nuw i8, ptr %40, i64 912
  tail call void @LWLockUpdateVar(ptr noundef nonnull %42, ptr noundef nonnull %43, i64 noundef %.027) #26
  br label %WALInsertLockUpdateInsertingAt.exit

44:                                               ; preds = %39
  %45 = load i32, ptr @MyLockNo, align 4
  %46 = sext i32 %45 to i64
  %47 = getelementptr inbounds %union.WALInsertLockPadded, ptr %40, i64 %46
  %48 = getelementptr inbounds nuw i8, ptr %47, i64 16
  tail call void @LWLockUpdateVar(ptr noundef %47, ptr noundef nonnull %48, i64 noundef %.027) #26
  br label %WALInsertLockUpdateInsertingAt.exit

WALInsertLockUpdateInsertingAt.exit:              ; preds = %41, %44
  tail call fastcc void @AdvanceXLInsertBuffer(i64 noundef %0, i32 noundef %1, i1 noundef zeroext false)
  %49 = load ptr, ptr @XLogCtl, align 8
  %50 = getelementptr inbounds nuw i8, ptr %49, i64 304
  %51 = load ptr, ptr %50, align 8
  %52 = getelementptr inbounds %struct.pg_atomic_uint64, ptr %51, i64 %21
  %53 = load volatile i64, ptr %52, align 8
  %.not30 = icmp eq i64 %18, %53
  br i1 %.not30, label %61, label %54

54:                                               ; preds = %WALInsertLockUpdateInsertingAt.exit
  %55 = tail call zeroext i1 @errstart_cold(i32 noundef 23, ptr noundef null) #27
  tail call void @llvm.assume(i1 %55)
  %56 = lshr i64 %0, 32
  %57 = trunc nuw i64 %56 to i32
  %58 = trunc i64 %0 to i32
  %59 = tail call i32 (ptr, ...) @errmsg_internal(ptr noundef nonnull @.str.103, i32 noundef %57, i32 noundef %58) #26
  tail call void @errfinish(ptr noundef nonnull @.str.14, i32 noundef 1709, ptr noundef nonnull @__func__.GetXLogBuffer) #26
  unreachable

60:                                               ; preds = %10
  tail call void asm sideeffect "lock; addl $$0,0(%rsp)", "~{memory},~{cc},~{dirflag},~{fpsr},~{flags}"() #26, !srcloc !12
  %.pre = load ptr, ptr @XLogCtl, align 8
  br label %61

61:                                               ; preds = %WALInsertLockUpdateInsertingAt.exit, %60
  %62 = phi ptr [ %49, %WALInsertLockUpdateInsertingAt.exit ], [ %.pre, %60 ]
  store i64 %3, ptr @GetXLogBuffer.cachedPage, align 8
  %63 = getelementptr inbounds nuw i8, ptr %62, i64 296
  %64 = load ptr, ptr %63, align 8
  %65 = ashr exact i64 %sext, 19
  %66 = getelementptr inbounds nuw i8, ptr %64, i64 %65
  store ptr %66, ptr @GetXLogBuffer.cachedPos, align 8
  %67 = getelementptr inbounds nuw i8, ptr %66, i64 %17
  br label %68

68:                                               ; preds = %61, %6
  %.0 = phi ptr [ %9, %6 ], [ %67, %61 ]
  ret ptr %.0
}